target datalayout = "e-m:e-p270:32:32-p271:32:32-p272:64:64-i64:64-i128:128-f80:128-n8:16:32:64-S128"
target triple = "x86_64-pc-linux-gnu"

%struct.ResourceOwnerData = type { ptr, ptr, ptr, ptr, i8, i8, i8, i8, i32, [32 x %struct.ResourceElem], ptr, i32, i32, [15 x ptr] }
%struct.ResourceElem = type { i64, ptr }

@TopMemoryContext = external global ptr, align 8
@.str = private unnamed_addr constant [50 x i8] c"ResourceOwnerEnlarge called after release started\00", align 1
@.str.1 = private unnamed_addr constant [11 x i8] c"resowner.c\00", align 1
@__func__.ResourceOwnerEnlarge = private unnamed_addr constant [21 x i8] c"ResourceOwnerEnlarge\00", align 1

; Function Attrs: inlinehint nounwind uwtable
define internal i64 @hash_combine64(i64 noundef %0, i64 noundef %1) #5 {
  %3 = alloca i64, align 8
  %4 = alloca i64, align 8
  store i64 %0, ptr %3, align 8
  store i64 %1, ptr %4, align 8
  %5 = load i64, ptr %4, align 8
  %6 = add i64 %5, 5305509591434766563
  %7 = load i64, ptr %3, align 8
  %8 = shl i64 %7, 54
  %9 = add i64 %6, %8
  %10 = load i64, ptr %3, align 8
  %11 = lshr i64 %10, 7
  %12 = add i64 %9, %11
  %13 = load i64, ptr %3, align 8
  %14 = xor i64 %13, %12
  store i64 %14, ptr %3, align 8
  %15 = load i64, ptr %3, align 8
  ret i64 %15
}

; Function Attrs: inlinehint nounwind uwtable
define internal i64 @murmurhash64(i64 noundef %0) #5 {
  %2 = alloca i64, align 8
  %3 = alloca i64, align 8
  store i64 %0, ptr %2, align 8
  call void @llvm.lifetime.start.p0(i64 8, ptr %3) #6
  %4 = load i64, ptr %2, align 8
  store i64 %4, ptr %3, align 8
  %5 = load i64, ptr %3, align 8
  %6 = lshr i64 %5, 33
  %7 = load i64, ptr %3, align 8
  %8 = xor i64 %7, %6
  store i64 %8, ptr %3, align 8
  %9 = load i64, ptr %3, align 8
  %10 = mul i64 %9, -49064778989728563
  store i64 %10, ptr %3, align 8
  %11 = load i64, ptr %3, align 8
  %12 = lshr i64 %11, 33
  %13 = load i64, ptr %3, align 8
  %14 = xor i64 %13, %12
  store i64 %14, ptr %3, align 8
  %15 = load i64, ptr %3, align 8
  %16 = mul i64 %15, -4265267296055464877
  store i64 %16, ptr %3, align 8
  %17 = load i64, ptr %3, align 8
  %18 = lshr i64 %17, 33
  %19 = load i64, ptr %3, align 8
  %20 = xor i64 %19, %18
  store i64 %20, ptr %3, align 8
  %21 = load i64, ptr %3, align 8
  call void @llvm.lifetime.end.p0(i64 8, ptr %3) #6
  ret i64 %21
}

; Function Attrs: inlinehint nounwind uwtable
define internal i32 @hash_resource_elem(i64 noundef %0, ptr noundef %1) #5 {
  %3 = alloca i64, align 8
  %4 = alloca ptr, align 8
  store i64 %0, ptr %3, align 8
  store ptr %1, ptr %4, align 8
  %5 = load i64, ptr %3, align 8
  %6 = call i64 @murmurhash64(i64 noundef %5)
  %7 = load ptr, ptr %4, align 8
  %8 = ptrtoint ptr %7 to i64
  %9 = call i64 @hash_combine64(i64 noundef %6, i64 noundef %8)
  %10 = trunc i64 %9 to i32
  ret i32 %10
}

; Function Attrs: nounwind uwtable
define internal void @ResourceOwnerAddToHash(ptr noundef %0, i64 noundef %1, ptr noundef %2) #0 {
  %4 = alloca ptr, align 8
  %5 = alloca i64, align 8
  %6 = alloca ptr, align 8
  %7 = alloca i32, align 4
  %8 = alloca i32, align 4
  store ptr %0, ptr %4, align 8
  store i64 %1, ptr %5, align 8
  store ptr %2, ptr %6, align 8
  call void @llvm.lifetime.start.p0(i64 4, ptr %7) #6
  %9 = load ptr, ptr %4, align 8
  %10 = getelementptr inbounds nuw %struct.ResourceOwnerData, ptr %9, i32 0, i32 11
  %11 = load i32, ptr %10, align 8
  %12 = sub i32 %11, 1
  store i32 %12, ptr %7, align 4
  call void @llvm.lifetime.start.p0(i64 4, ptr %8) #6
  %13 = load i64, ptr %5, align 8
  %14 = load ptr, ptr %6, align 8
  %15 = call i32 @hash_resource_elem(i64 noundef %13, ptr noundef %14)
  %16 = load i32, ptr %7, align 4
  %17 = and i32 %15, %16
  store i32 %17, ptr %8, align 4
  br label %18

18:                                               ; preds = %29, %3
  %19 = load ptr, ptr %4, align 8
  %20 = getelementptr inbounds nuw %struct.ResourceOwnerData, ptr %19, i32 0, i32 10
  %21 = load ptr, ptr %20, align 8
  %22 = load i32, ptr %8, align 4
  %23 = zext i32 %22 to i64
  %24 = getelementptr inbounds nuw %struct.ResourceElem, ptr %21, i64 %23
  %25 = getelementptr inbounds nuw %struct.ResourceElem, ptr %24, i32 0, i32 1
  %26 = load ptr, ptr %25, align 8
  %27 = icmp eq ptr %26, null
  br i1 %27, label %28, label %29

28:                                               ; preds = %18
  br label %34

29:                                               ; preds = %18
  %30 = load i32, ptr %8, align 4
  %31 = add i32 %30, 1
  %32 = load i32, ptr %7, align 4
  %33 = and i32 %31, %32
  store i32 %33, ptr %8, align 4
  br label %18

34:                                               ; preds = %28
  %35 = load i64, ptr %5, align 8
  %36 = load ptr, ptr %4, align 8
  %37 = getelementptr inbounds nuw %struct.ResourceOwnerData, ptr %36, i32 0, i32 10
  %38 = load ptr, ptr %37, align 8
  %39 = load i32, ptr %8, align 4
  %40 = zext i32 %39 to i64
  %41 = getelementptr inbounds nuw %struct.ResourceElem, ptr %38, i64 %40
  %42 = getelementptr inbounds nuw %struct.ResourceElem, ptr %41, i32 0, i32 0
  store i64 %35, ptr %42, align 8
  %43 = load ptr, ptr %6, align 8
  %44 = load ptr, ptr %4, align 8
  %45 = getelementptr inbounds nuw %struct.ResourceOwnerData, ptr %44, i32 0, i32 10
  %46 = load ptr, ptr %45, align 8
  %47 = load i32, ptr %8, align 4
  %48 = zext i32 %47 to i64
  %49 = getelementptr inbounds nuw %struct.ResourceElem, ptr %46, i64 %48
  %50 = getelementptr inbounds nuw %struct.ResourceElem, ptr %49, i32 0, i32 1
  store ptr %43, ptr %50, align 8
  %51 = load ptr, ptr %4, align 8
  %52 = getelementptr inbounds nuw %struct.ResourceOwnerData, ptr %51, i32 0, i32 8
  %53 = load i32, ptr %52, align 4
  %54 = add i32 %53, 1
  store i32 %54, ptr %52, align 4
  call void @llvm.lifetime.end.p0(i64 4, ptr %8) #6
  call void @llvm.lifetime.end.p0(i64 4, ptr %7) #6
  ret void
}

; Function Attrs: nounwind uwtable
define dso_local void @ResourceOwnerEnlarge(ptr noundef %0) #0 {
  %2 = alloca ptr, align 8
  %3 = alloca i32, align 4
  %4 = alloca i32, align 4
  %5 = alloca i32, align 4
  %6 = alloca ptr, align 8
  %7 = alloca ptr, align 8
  %8 = alloca i32, align 4
  store ptr %0, ptr %2, align 8
  %9 = load ptr, ptr %2, align 8
  %10 = getelementptr inbounds nuw %struct.ResourceOwnerData, ptr %9, i32 0, i32 4
  %11 = load i8, ptr %10, align 8, !range !4, !noundef !5
  %12 = trunc i8 %11 to i1
  br i1 %12, label %13, label %23

13:                                               ; preds = %1
  br label %14

14:                                               ; preds = %13
  br i1 true, label %15, label %17

15:                                               ; preds = %14
  %16 = call zeroext i1 @errstart_cold(i32 noundef 21, ptr noundef null) #7
  br i1 %16, label %19, label %21

17:                                               ; preds = %14
  %18 = call zeroext i1 @errstart(i32 noundef 21, ptr noundef null)
  br i1 %18, label %19, label %21

19:                                               ; preds = %17, %15
  %20 = call i32 (ptr, ...) @errmsg_internal(ptr noundef @.str)
  call void @errfinish(ptr noundef @.str.1, i32 noundef 449, ptr noundef @__func__.ResourceOwnerEnlarge)
  br label %21

21:                                               ; preds = %19, %17, %15
  unreachable

22:                                               ; No predecessors!
  br label %23

23:                                               ; preds = %22, %1
  %24 = load ptr, ptr %2, align 8
  %25 = getelementptr inbounds nuw %struct.ResourceOwnerData, ptr %24, i32 0, i32 7
  %26 = load i8, ptr %25, align 1
  %27 = zext i8 %26 to i32
  %28 = icmp slt i32 %27, 32
  br i1 %28, label %29, label %30

29:                                               ; preds = %23
  br label %155

30:                                               ; preds = %23
  %31 = load ptr, ptr %2, align 8
  %32 = getelementptr inbounds nuw %struct.ResourceOwnerData, ptr %31, i32 0, i32 7
  %33 = load i8, ptr %32, align 1
  %34 = zext i8 %33 to i32
  %35 = load ptr, ptr %2, align 8
  %36 = getelementptr inbounds nuw %struct.ResourceOwnerData, ptr %35, i32 0, i32 8
  %37 = load i32, ptr %36, align 4
  %38 = add i32 %34, %37
  %39 = load ptr, ptr %2, align 8
  %40 = getelementptr inbounds nuw %struct.ResourceOwnerData, ptr %39, i32 0, i32 12
  %41 = load i32, ptr %40, align 4
  %42 = icmp uge i32 %38, %41
  br i1 %42, label %43, label %124

43:                                               ; preds = %30
  call void @llvm.lifetime.start.p0(i64 4, ptr %3) #6
  call void @llvm.lifetime.start.p0(i64 4, ptr %4) #6
  call void @llvm.lifetime.start.p0(i64 4, ptr %5) #6
  call void @llvm.lifetime.start.p0(i64 8, ptr %6) #6
  call void @llvm.lifetime.start.p0(i64 8, ptr %7) #6
  %44 = load ptr, ptr %2, align 8
  %45 = getelementptr inbounds nuw %struct.ResourceOwnerData, ptr %44, i32 0, i32 10
  %46 = load ptr, ptr %45, align 8
  store ptr %46, ptr %6, align 8
  %47 = load ptr, ptr %2, align 8
  %48 = getelementptr inbounds nuw %struct.ResourceOwnerData, ptr %47, i32 0, i32 11
  %49 = load i32, ptr %48, align 8
  store i32 %49, ptr %4, align 4
  %50 = load i32, ptr %4, align 4
  %51 = icmp ugt i32 %50, 0
  br i1 %51, label %52, label %55

52:                                               ; preds = %43
  %53 = load i32, ptr %4, align 4
  %54 = mul i32 %53, 2
  br label %56

55:                                               ; preds = %43
  br label %56

56:                                               ; preds = %55, %52
  %57 = phi i32 [ %54, %52 ], [ 64, %55 ]
  store i32 %57, ptr %5, align 4
  %58 = load ptr, ptr @TopMemoryContext, align 8
  %59 = load i32, ptr %5, align 4
  %60 = zext i32 %59 to i64
  %61 = mul i64 %60, 16
  %62 = call ptr @MemoryContextAllocZero(ptr noundef %58, i64 noundef %61)
  store ptr %62, ptr %7, align 8
  %63 = load ptr, ptr %7, align 8
  %64 = load ptr, ptr %2, align 8
  %65 = getelementptr inbounds nuw %struct.ResourceOwnerData, ptr %64, i32 0, i32 10
  store ptr %63, ptr %65, align 8
  %66 = load i32, ptr %5, align 4
  %67 = load ptr, ptr %2, align 8
  %68 = getelementptr inbounds nuw %struct.ResourceOwnerData, ptr %67, i32 0, i32 11
  store i32 %66, ptr %68, align 8
  %69 = load i32, ptr %5, align 4
  %70 = sub i32 %69, 32
  %71 = load i32, ptr %5, align 4
  %72 = udiv i32 %71, 4
  %73 = mul i32 %72, 3
  %74 = icmp ult i32 %70, %73
  br i1 %74, label %75, label %78

75:                                               ; preds = %56
  %76 = load i32, ptr %5, align 4
  %77 = sub i32 %76, 32
  br label %82

78:                                               ; preds = %56
  %79 = load i32, ptr %5, align 4
  %80 = udiv i32 %79, 4
  %81 = mul i32 %80, 3
  br label %82

82:                                               ; preds = %78, %75
  %83 = phi i32 [ %77, %75 ], [ %81, %78 ]
  %84 = load ptr, ptr %2, align 8
  %85 = getelementptr inbounds nuw %struct.ResourceOwnerData, ptr %84, i32 0, i32 12
  store i32 %83, ptr %85, align 4
  %86 = load ptr, ptr %2, align 8
  %87 = getelementptr inbounds nuw %struct.ResourceOwnerData, ptr %86, i32 0, i32 8
  store i32 0, ptr %87, align 4
  %88 = load ptr, ptr %6, align 8
  %89 = icmp ne ptr %88, null
  br i1 %89, label %90, label %123

90:                                               ; preds = %82
  store i32 0, ptr %3, align 4
  br label %91

91:                                               ; preds = %118, %90
  %92 = load i32, ptr %3, align 4
  %93 = load i32, ptr %4, align 4
  %94 = icmp ult i32 %92, %93
  br i1 %94, label %95, label %121

95:                                               ; preds = %91
  %96 = load ptr, ptr %6, align 8
  %97 = load i32, ptr %3, align 4
  %98 = zext i32 %97 to i64
  %99 = getelementptr inbounds nuw %struct.ResourceElem, ptr %96, i64 %98
  %100 = getelementptr inbounds nuw %struct.ResourceElem, ptr %99, i32 0, i32 1
  %101 = load ptr, ptr %100, align 8
  %102 = icmp ne ptr %101, null
  br i1 %102, label %103, label %117

103:                                              ; preds = %95
  %104 = load ptr, ptr %2, align 8
  %105 = load ptr, ptr %6, align 8
  %106 = load i32, ptr %3, align 4
  %107 = zext i32 %106 to i64
  %108 = getelementptr inbounds nuw %struct.ResourceElem, ptr %105, i64 %107
  %109 = getelementptr inbounds nuw %struct.ResourceElem, ptr %108, i32 0, i32 0
  %110 = load i64, ptr %109, align 8
  %111 = load ptr, ptr %6, align 8
  %112 = load i32, ptr %3, align 4
  %113 = zext i32 %112 to i64
  %114 = getelementptr inbounds nuw %struct.ResourceElem, ptr %111, i64 %113
  %115 = getelementptr inbounds nuw %struct.ResourceElem, ptr %114, i32 0, i32 1
  %116 = load ptr, ptr %115, align 8
  call void @ResourceOwnerAddToHash(ptr noundef %104, i64 noundef %110, ptr noundef %116)
  br label %117

117:                                              ; preds = %103, %95
  br label %118

118:                                              ; preds = %117
  %119 = load i32, ptr %3, align 4
  %120 = add i32 %119, 1
  store i32 %120, ptr %3, align 4
  br label %91, !llvm.loop !6

121:                                              ; preds = %91
  %122 = load ptr, ptr %6, align 8
  call void @pfree(ptr noundef %122)
  br label %123

123:                                              ; preds = %121, %82
  call void @llvm.lifetime.end.p0(i64 8, ptr %7) #6
  call void @llvm.lifetime.end.p0(i64 8, ptr %6) #6
  call void @llvm.lifetime.end.p0(i64 4, ptr %5) #6
  call void @llvm.lifetime.end.p0(i64 4, ptr %4) #6
  call void @llvm.lifetime.end.p0(i64 4, ptr %3) #6
  br label %124

124:                                              ; preds = %123, %30
  call void @llvm.lifetime.start.p0(i64 4, ptr %8) #6
  store i32 0, ptr %8, align 4
  br label %125

125:                                              ; preds = %149, %124
  %126 = load i32, ptr %8, align 4
  %127 = load ptr, ptr %2, align 8
  %128 = getelementptr inbounds nuw %struct.ResourceOwnerData, ptr %127, i32 0, i32 7
  %129 = load i8, ptr %128, align 1
  %130 = zext i8 %129 to i32
  %131 = icmp slt i32 %126, %130
  br i1 %131, label %133, label %132

132:                                              ; preds = %125
  call void @llvm.lifetime.end.p0(i64 4, ptr %8) #6
  br label %152

133:                                              ; preds = %125
  %134 = load ptr, ptr %2, align 8
  %135 = load ptr, ptr %2, align 8
  %136 = getelementptr inbounds nuw %struct.ResourceOwnerData, ptr %135, i32 0, i32 9
  %137 = load i32, ptr %8, align 4
  %138 = sext i32 %137 to i64
  %139 = getelementptr inbounds [32 x %struct.ResourceElem], ptr %136, i64 0, i64 %138
  %140 = getelementptr inbounds nuw %struct.ResourceElem, ptr %139, i32 0, i32 0
  %141 = load i64, ptr %140, align 8
  %142 = load ptr, ptr %2, align 8
  %143 = getelementptr inbounds nuw %struct.ResourceOwnerData, ptr %142, i32 0, i32 9
  %144 = load i32, ptr %8, align 4
  %145 = sext i32 %144 to i64
  %146 = getelementptr inbounds [32 x %struct.ResourceElem], ptr %143, i64 0, i64 %145
  %147 = getelementptr inbounds nuw %struct.ResourceElem, ptr %146, i32 0, i32 1
  %148 = load ptr, ptr %147, align 8
  call void @ResourceOwnerAddToHash(ptr noundef %134, i64 noundef %141, ptr noundef %148)
  br label %149

149:                                              ; preds = %133
  %150 = load i32, ptr %8, align 4
  %151 = add i32 %150, 1
  store i32 %151, ptr %8, align 4
  br label %125, !llvm.loop !8

152:                                              ; preds = %132
  %153 = load ptr, ptr %2, align 8
  %154 = getelementptr inbounds nuw %struct.ResourceOwnerData, ptr %153, i32 0, i32 7
  store i8 0, ptr %154, align 1
  br label %155

155:                                              ; preds = %152, %29
  ret void
}