; Function Attrs: nounwind uwtable
define dso_local void @ResourceOwnerEnlarge(ptr noundef captures(none) %0) local_unnamed_addr #0 {
  %2 = getelementptr inbounds nuw i8, ptr %0, i64 32
  %3 = load i8, ptr %2, align 8, !range !4, !noundef !5
  %4 = trunc nuw i8 %3 to i1
  br i1 %4, label %5, label %8

5:                                                ; preds = %1
  %6 = tail call zeroext i1 @errstart_cold(i32 noundef 21, ptr noundef null) #11
  tail call void @llvm.assume(i1 %6)
  %7 = tail call i32 (ptr, ...) @errmsg_internal(ptr noundef nonnull @.str) #10
  tail call void @errfinish(ptr noundef nonnull @.str.1, i32 noundef 449, ptr noundef nonnull @__func__.ResourceOwnerEnlarge) #10
  unreachable

8:                                                ; preds = %1
  %9 = getelementptr inbounds nuw i8, ptr %0, i64 35
  %10 = load i8, ptr %9, align 1
  %11 = icmp ult i8 %10, 32
  br i1 %11, label %108, label %12

12:                                               ; preds = %8
  %13 = zext i8 %10 to i32
  %14 = getelementptr inbounds nuw i8, ptr %0, i64 36
  %15 = load i32, ptr %14, align 4
  %16 = add i32 %15, %13
  %17 = getelementptr inbounds nuw i8, ptr %0, i64 564
  %18 = load i32, ptr %17, align 4
  %.not = icmp ult i32 %16, %18
  br i1 %.not, label %67, label %19

19:                                               ; preds = %12
  %20 = getelementptr inbounds nuw i8, ptr %0, i64 552
  %21 = load ptr, ptr %20, align 8
  %22 = getelementptr inbounds nuw i8, ptr %0, i64 560
  %23 = load i32, ptr %22, align 8
  %.not46 = icmp eq i32 %23, 0
  %24 = shl i32 %23, 1
  %25 = select i1 %.not46, i32 64, i32 %24
  %26 = load ptr, ptr @TopMemoryContext, align 8
  %27 = zext i32 %25 to i64
  %28 = shl nuw nsw i64 %27, 4
  %29 = tail call ptr @MemoryContextAllocZero(ptr noundef %26, i64 noundef %28) #10
  store ptr %29, ptr %20, align 8
  store i32 %25, ptr %22, align 8
  %30 = add i32 %25, -32
  %31 = lshr i32 %25, 2
  %32 = mul nuw i32 %31, 3
  %. = tail call i32 @llvm.umin.i32(i32 %30, i32 %32)
  store i32 %., ptr %17, align 4
  store i32 0, ptr %14, align 4
  %.not47 = icmp eq ptr %21, null
  br i1 %.not47, label %67, label %.preheader

.preheader:                                       ; preds = %19
  br i1 %.not46, label %._crit_edge, label %.lr.ph.preheader

.lr.ph.preheader:                                 ; preds = %.preheader
  %wide.trip.count = zext i32 %23 to i64
  br label %.lr.ph

.lr.ph:                                           ; preds = %.lr.ph.preheader, %66
  %indvars.iv = phi i64 [ 0, %.lr.ph.preheader ], [ %indvars.iv.next, %66 ]
  %33 = getelementptr inbounds nuw %struct.ResourceElem, ptr %21, i64 %indvars.iv
  %34 = getelementptr inbounds nuw i8, ptr %33, i64 8
  %35 = load ptr, ptr %34, align 8
  %.not48 = icmp eq ptr %35, null
  br i1 %.not48, label %66, label %36

36:                                               ; preds = %.lr.ph
  %37 = load i64, ptr %33, align 8
  %38 = load i32, ptr %22, align 8
  %39 = add i32 %38, -1
  %40 = lshr i64 %37, 33
  %41 = xor i64 %40, %37
  %42 = mul i64 %41, -49064778989728563
  %43 = lshr i64 %42, 33
  %44 = xor i64 %43, %42
  %45 = mul i64 %44, -4265267296055464877
  %46 = lshr i64 %45, 33
  %47 = xor i64 %46, %45
  %48 = ptrtoint ptr %35 to i64
  %49 = add i64 %48, 367372515
  %50 = lshr i64 %47, 7
  %51 = add i64 %49, %50
  %52 = xor i64 %51, %47
  %53 = trunc i64 %52 to i32
  %54 = load ptr, ptr %20, align 8
  br label %55

55:                                               ; preds = %55, %36
  %.pn.i = phi i32 [ %53, %36 ], [ %61, %55 ]
  %.0.i = and i32 %.pn.i, %39
  %56 = zext i32 %.0.i to i64
  %57 = getelementptr inbounds nuw %struct.ResourceElem, ptr %54, i64 %56
  %58 = getelementptr inbounds nuw i8, ptr %57, i64 8
  %59 = load ptr, ptr %58, align 8
  %60 = icmp eq ptr %59, null
  %61 = add i32 %.0.i, 1
  br i1 %60, label %ResourceOwnerAddToHash.exit, label %55

ResourceOwnerAddToHash.exit:                      ; preds = %55
  store i64 %37, ptr %57, align 8
  %62 = load ptr, ptr %20, align 8
  %63 = getelementptr inbounds nuw %struct.ResourceElem, ptr %62, i64 %56, i32 1
  store ptr %35, ptr %63, align 8
  %64 = load i32, ptr %14, align 4
  %65 = add i32 %64, 1
  store i32 %65, ptr %14, align 4
  br label %66

66:                                               ; preds = %.lr.ph, %ResourceOwnerAddToHash.exit
  %indvars.iv.next = add nuw nsw i64 %indvars.iv, 1
  %exitcond.not = icmp eq i64 %indvars.iv.next, %wide.trip.count
  br i1 %exitcond.not, label %._crit_edge, label %.lr.ph, !llvm.loop !6

._crit_edge:                                      ; preds = %66, %.preheader
  tail call void @pfree(ptr noundef nonnull %21) #10
  br label %67

67:                                               ; preds = %19, %._crit_edge, %12
  %68 = load i8, ptr %9, align 1
  %.not61 = icmp eq i8 %68, 0
  br i1 %.not61, label %._crit_edge59, label %.lr.ph58

.lr.ph58:                                         ; preds = %67
  %69 = getelementptr inbounds nuw i8, ptr %0, i64 40
  %70 = getelementptr inbounds nuw i8, ptr %0, i64 560
  %71 = getelementptr inbounds nuw i8, ptr %0, i64 552
  br label %72

._crit_edge59:                                    ; preds = %ResourceOwnerAddToHash.exit51, %67
  store i8 0, ptr %9, align 1
  br label %108

72:                                               ; preds = %.lr.ph58, %ResourceOwnerAddToHash.exit51
  %indvars.iv66 = phi i64 [ 0, %.lr.ph58 ], [ %indvars.iv.next67, %ResourceOwnerAddToHash.exit51 ]
  %73 = getelementptr inbounds nuw [32 x %struct.ResourceElem], ptr %69, i64 0, i64 %indvars.iv66
  %74 = load i64, ptr %73, align 8
  %75 = getelementptr inbounds nuw i8, ptr %73, i64 8
  %76 = load ptr, ptr %75, align 8
  %77 = load i32, ptr %70, align 8
  %78 = add i32 %77, -1
  %79 = lshr i64 %74, 33
  %80 = xor i64 %79, %74
  %81 = mul i64 %80, -49064778989728563
  %82 = lshr i64 %81, 33
  %83 = xor i64 %82, %81
  %84 = mul i64 %83, -4265267296055464877
  %85 = lshr i64 %84, 33
  %86 = xor i64 %85, %84
  %87 = ptrtoint ptr %76 to i64
  %88 = add i64 %87, 367372515
  %89 = lshr i64 %86, 7
  %90 = add i64 %88, %89
  %91 = xor i64 %90, %86
  %92 = trunc i64 %91 to i32
  %93 = load ptr, ptr %71, align 8
  br label %94

94:                                               ; preds = %94, %72
  %.pn.i49 = phi i32 [ %92, %72 ], [ %100, %94 ]
  %.0.i50 = and i32 %.pn.i49, %78
  %95 = zext i32 %.0.i50 to i64
  %96 = getelementptr inbounds nuw %struct.ResourceElem, ptr %93, i64 %95
  %97 = getelementptr inbounds nuw i8, ptr %96, i64 8
  %98 = load ptr, ptr %97, align 8
  %99 = icmp eq ptr %98, null
  %100 = add i32 %.0.i50, 1
  br i1 %99, label %ResourceOwnerAddToHash.exit51, label %94

ResourceOwnerAddToHash.exit51:                    ; preds = %94
  store i64 %74, ptr %96, align 8
  %101 = load ptr, ptr %71, align 8
  %102 = getelementptr inbounds nuw %struct.ResourceElem, ptr %101, i64 %95, i32 1
  store ptr %76, ptr %102, align 8
  %103 = load i32, ptr %14, align 4
  %104 = add i32 %103, 1
  store i32 %104, ptr %14, align 4
  %indvars.iv.next67 = add nuw nsw i64 %indvars.iv66, 1
  %105 = load i8, ptr %9, align 1
  %106 = zext i8 %105 to i64
  %107 = icmp samesign ult i64 %indvars.iv.next67, %106
  br i1 %107, label %72, label %._crit_edge59, !llvm.loop !8

108:                                              ; preds = %8, %._crit_edge59
  ret void
}